; Function Attrs: nounwind uwtable
define ptr @l_Array_foldrMUnsafe_fold___at_Lean_Compiler_LCNF_PullLetDecls_attachToPull___spec__1(ptr noundef readonly captures(none) %0, i64 noundef %1, i64 noundef %2, ptr noundef %3) local_unnamed_addr #0 {
  %.not28 = icmp eq i64 %1, %2
  br i1 %.not28, label %._crit_edge, label %.lr.ph

.lr.ph:                                           ; preds = %4
  %5 = getelementptr inbounds nuw i8, ptr %0, i64 24
  br label %6

6:                                                ; preds = %.lr.ph, %21
  %.01630 = phi i64 [ %1, %.lr.ph ], [ %7, %21 ]
  %.01829 = phi ptr [ %3, %.lr.ph ], [ %18, %21 ]
  %7 = add i64 %.01630, -1
  %8 = getelementptr inbounds nuw [0 x ptr], ptr %5, i64 0, i64 %7
  %9 = load ptr, ptr %8, align 8, !tbaa !9
  %10 = ptrtoint ptr %9 to i64
  %11 = and i64 %10, 1
  %.not.i = icmp eq i64 %11, 0
  br i1 %.not.i, label %12, label %lean_array_uget.exit

12:                                               ; preds = %6
  %.val.i.i = load i32, ptr %9, align 4, !tbaa !4
  %13 = icmp sgt i32 %.val.i.i, 0
  br i1 %13, label %14, label %16, !prof !11

14:                                               ; preds = %12
  %15 = add nuw i32 %.val.i.i, 1
  store i32 %15, ptr %9, align 4, !tbaa !4
  br label %lean_array_uget.exit

16:                                               ; preds = %12
  %.not.i.i = icmp eq i32 %.val.i.i, 0
  br i1 %.not.i.i, label %lean_array_uget.exit, label %17

17:                                               ; preds = %16
  tail call void @lean_inc_ref_cold(ptr noundef nonnull %9) #4
  br label %lean_array_uget.exit

lean_array_uget.exit:                             ; preds = %6, %14, %16, %17
  tail call void @lean_inc_heartbeat() #4
  %18 = tail call noalias ptr @mi_malloc_small(i64 noundef 24) #4
  %19 = icmp eq ptr %18, null
  br i1 %19, label %20, label %21

20:                                               ; preds = %lean_array_uget.exit
  tail call void @lean_internal_panic_out_of_memory() #5
  unreachable

21:                                               ; preds = %lean_array_uget.exit
  %22 = getelementptr inbounds nuw i8, ptr %18, i64 4
  store i32 1, ptr %18, align 4, !tbaa !4
  store i32 131096, ptr %22, align 4
  %23 = getelementptr inbounds nuw i8, ptr %18, i64 8
  store ptr %9, ptr %23, align 8, !tbaa !9
  %24 = getelementptr inbounds nuw i8, ptr %18, i64 16
  store ptr %.01829, ptr %24, align 8, !tbaa !9
  %.not = icmp eq i64 %7, %2
  br i1 %.not, label %._crit_edge, label %6

._crit_edge:                                      ; preds = %21, %4
  %.018.lcssa = phi ptr [ %3, %4 ], [ %18, %21 ]
  ret ptr %.018.lcssa
}